target datalayout = "e-m:e-p270:32:32-p271:32:32-p272:64:64-i64:64-i128:128-f80:128-n8:16:32:64-S128"
target triple = "x86_64-pc-linux-gnu"

%struct.AVCodecContext = type { ptr, i32, i32, ptr, i32, i32, ptr, ptr, ptr, i64, i32, i32, ptr, i32, %struct.AVRational, %struct.AVRational, %struct.AVRational, i32, i32, i32, i32, i32, %struct.AVRational, i32, i32, i32, i32, i32, i32, i32, i32, i32, i32, i32, ptr, ptr, i32, float, float, float, float, float, float, float, float, float, i32, i32, i32, i32, i32, i32, i32, i32, i32, i32, i32, i32, ptr, ptr, ptr, i32, i32, i32, i32, i32, i32, i32, i32, i32, i32, %struct.AVChannelLayout, i32, i32, i32, i32, i32, i32, i32, i32, ptr, i32, i32, i32, float, float, i32, i32, i32, i32, i32, ptr, i64, i64, float, float, i32, i32, ptr, ptr, i32, i32, i32, i32, i32, ptr, ptr, ptr, ptr, i32, i32, [8 x i64], i32, i32, i32, i32, i32, i32, i32, ptr, ptr, i32, i32, i32, i32, i32, i32, i32, i32, i32, i32, ptr, ptr, i32, i32, ptr, ptr, ptr, ptr, i32, i32, i64, i32, i32, i64, ptr, i64, ptr, i32, ptr, i32 }
%struct.AVRational = type { i32, i32 }
%struct.AVChannelLayout = type { i32, i32, %union.anon.0, ptr }
%union.anon.0 = type { i64 }
%struct.APVDecodeContext = type { ptr, %struct.APVDSPContext, %struct.CodedBitstreamFragment, %struct.APVDerivedTileInfo, ptr, i32, i8, i8 }
%struct.APVDSPContext = type { ptr }
%struct.CodedBitstreamFragment = type { ptr, i64, i64, ptr, i32, i32, ptr }
%struct.APVDerivedTileInfo = type { i8, i8, i16, [21 x i16], [21 x i16] }
%struct.CodedBitstreamContext = type { ptr, ptr, ptr, ptr, i32, i32, i32, ptr, ptr, ptr, ptr, i64 }

@apv_entropy_once = internal global i32 0, align 4
@apv_decompose_unit_types = internal constant [2 x i32] [i32 1, i32 66], align 4

; Function Attrs: cold nounwind optsize uwtable
define internal i32 @apv_decode_init(ptr noundef %0) #0 {
  %2 = alloca i32, align 4
  %3 = alloca ptr, align 8
  %4 = alloca ptr, align 8
  %5 = alloca i32, align 4
  %6 = alloca i32, align 4
  store ptr %0, ptr %3, align 8, !tbaa !4
  call void @llvm.lifetime.start.p0(i64 8, ptr %4) #7
  %7 = load ptr, ptr %3, align 8, !tbaa !4
  %8 = getelementptr inbounds nuw %struct.AVCodecContext, ptr %7, i32 0, i32 6
  %9 = load ptr, ptr %8, align 8, !tbaa !9
  store ptr %9, ptr %4, align 8, !tbaa !29
  call void @llvm.lifetime.start.p0(i64 4, ptr %5) #7
  %10 = call i32 @pthread_once(ptr noundef @apv_entropy_once, ptr noundef @apv_entropy_build_decode_lut)
  %11 = load ptr, ptr %4, align 8, !tbaa !29
  %12 = getelementptr inbounds nuw %struct.APVDecodeContext, ptr %11, i32 0, i32 0
  %13 = load ptr, ptr %3, align 8, !tbaa !4
  %14 = call i32 @ff_cbs_init(ptr noundef %12, i32 noundef 273, ptr noundef %13)
  store i32 %14, ptr %5, align 4, !tbaa !31
  %15 = load i32, ptr %5, align 4, !tbaa !31
  %16 = icmp slt i32 %15, 0
  br i1 %16, label %17, label %19

17:                                               ; preds = %1
  %18 = load i32, ptr %5, align 4, !tbaa !31
  store i32 %18, ptr %2, align 4
  store i32 1, ptr %6, align 4
  br label %32

19:                                               ; preds = %1
  %20 = load ptr, ptr %4, align 8, !tbaa !29
  %21 = getelementptr inbounds nuw %struct.APVDecodeContext, ptr %20, i32 0, i32 0
  %22 = load ptr, ptr %21, align 8, !tbaa !32
  %23 = getelementptr inbounds nuw %struct.CodedBitstreamContext, ptr %22, i32 0, i32 3
  store ptr @apv_decompose_unit_types, ptr %23, align 8, !tbaa !41
  %24 = load ptr, ptr %4, align 8, !tbaa !29
  %25 = getelementptr inbounds nuw %struct.APVDecodeContext, ptr %24, i32 0, i32 0
  %26 = load ptr, ptr %25, align 8, !tbaa !32
  %27 = getelementptr inbounds nuw %struct.CodedBitstreamContext, ptr %26, i32 0, i32 4
  store i32 2, ptr %27, align 8, !tbaa !44
  %28 = load ptr, ptr %4, align 8, !tbaa !29
  %29 = getelementptr inbounds nuw %struct.APVDecodeContext, ptr %28, i32 0, i32 1
  call void @ff_apv_dsp_init(ptr noundef %29)
  %30 = load ptr, ptr %4, align 8, !tbaa !29
  %31 = getelementptr inbounds nuw %struct.APVDecodeContext, ptr %30, i32 0, i32 5
  store i32 0, ptr %31, align 4, !tbaa !45
  store i32 0, ptr %2, align 4
  store i32 1, ptr %6, align 4
  br label %32

32:                                               ; preds = %19, %17
  call void @llvm.lifetime.end.p0(i64 4, ptr %5) #7
  call void @llvm.lifetime.end.p0(i64 8, ptr %4) #7
  %33 = load i32, ptr %2, align 4
  ret i32 %33
}