; Function Attrs: cold nounwind optsize uwtable
define internal range(i32 -2147483648, 1) i32 @apv_decode_init(ptr noundef %0) #0 {
  %2 = getelementptr inbounds nuw i8, ptr %0, i64 32
  %3 = load ptr, ptr %2, align 8, !tbaa !4
  %4 = tail call i32 @pthread_once(ptr noundef nonnull @apv_entropy_once, ptr noundef nonnull @apv_entropy_build_decode_lut) #6
  %5 = tail call i32 @ff_cbs_init(ptr noundef %3, i32 noundef 273, ptr noundef %0) #6
  %6 = icmp slt i32 %5, 0
  br i1 %6, label %13, label %7

7:                                                ; preds = %1
  %8 = load ptr, ptr %3, align 8, !tbaa !27
  %9 = getelementptr inbounds nuw i8, ptr %8, i64 24
  store ptr @apv_decompose_unit_types, ptr %9, align 8, !tbaa !36
  %10 = getelementptr inbounds nuw i8, ptr %8, i64 32
  store i32 2, ptr %10, align 8, !tbaa !39
  %11 = getelementptr inbounds nuw i8, ptr %3, i64 8
  tail call void @ff_apv_dsp_init(ptr noundef nonnull %11) #6
  %12 = getelementptr inbounds nuw i8, ptr %3, i64 160
  store i32 0, ptr %12, align 4, !tbaa !40
  br label %13

13:                                               ; preds = %1, %7
  %.0 = phi i32 [ 0, %7 ], [ %5, %1 ]
  ret i32 %.0
}